target datalayout = "e-m:e-p270:32:32-p271:32:32-p272:64:64-i64:64-i128:128-f80:128-n8:16:32:64-S128"
target triple = "x86_64-pc-linux-gnu"

%"class.std::__cxx11::basic_string" = type { %"struct.std::__cxx11::basic_string<char>::_Alloc_hider", i64, %union.anon }
%"struct.std::__cxx11::basic_string<char>::_Alloc_hider" = type { ptr }
%union.anon = type { i64, [8 x i8] }
%class.cmTest = type <{ %class.cmPropertyMap, %"class.std::__cxx11::basic_string", %"class.std::vector", i8, i8, [6 x i8], ptr, %class.cmListFileBacktrace, i32, [4 x i8] }>
%class.cmPropertyMap = type { %"class.std::unordered_map" }
%"class.std::unordered_map" = type { %"class.std::_Hashtable" }
%"class.std::_Hashtable" = type { ptr, i64, %"struct.std::__detail::_Hash_node_base", i64, %"struct.std::__detail::_Prime_rehash_policy", ptr }
%"struct.std::__detail::_Hash_node_base" = type { ptr }
%"struct.std::__detail::_Prime_rehash_policy" = type { float, i64 }
%"class.std::vector" = type { %"struct.std::_Vector_base" }
%"struct.std::_Vector_base" = type { %"struct.std::_Vector_base<std::__cxx11::basic_string<char>, std::allocator<std::__cxx11::basic_string<char>>>::_Vector_impl" }
%"struct.std::_Vector_base<std::__cxx11::basic_string<char>, std::allocator<std::__cxx11::basic_string<char>>>::_Vector_impl" = type { %"struct.std::_Vector_base<std::__cxx11::basic_string<char>, std::allocator<std::__cxx11::basic_string<char>>>::_Vector_impl_data" }
%"struct.std::_Vector_base<std::__cxx11::basic_string<char>, std::allocator<std::__cxx11::basic_string<char>>>::_Vector_impl_data" = type { ptr, ptr, ptr }
%class.cmListFileBacktrace = type { %class.cmConstStack }
%class.cmConstStack = type { %"class.std::shared_ptr" }
%"class.std::shared_ptr" = type { %"class.std::__shared_ptr" }
%"class.std::__shared_ptr" = type { ptr, %"class.std::__shared_count" }
%"class.std::__shared_count" = type { ptr }
%class.cmValue = type { ptr }

; Function Attrs: mustprogress nounwind uwtable
define linkonce_odr dso_local void @_ZN7cmValueC2EDn(ptr noundef nonnull align 8 dereferenceable(8) %0, ptr %1) unnamed_addr #5 comdat align 2 {
  %3 = alloca ptr, align 8
  %4 = alloca ptr, align 8
  store ptr %0, ptr %3, align 8
  store ptr %1, ptr %4, align 8
  %5 = load ptr, ptr %3, align 8
  %6 = getelementptr inbounds %class.cmValue, ptr %5, i32 0, i32 0
  store ptr null, ptr %6, align 8
  ret void
}

; Function Attrs: mustprogress nounwind uwtable
define linkonce_odr dso_local noundef zeroext i1 @_ZNK7cmValuecvbEv(ptr noundef nonnull align 8 dereferenceable(8) %0) #5 comdat align 2 {
  %2 = alloca ptr, align 8
  store ptr %0, ptr %2, align 8
  %3 = load ptr, ptr %2, align 8
  %4 = getelementptr inbounds %class.cmValue, ptr %3, i32 0, i32 0
  %5 = load ptr, ptr %4, align 8
  %6 = icmp ne ptr %5, null
  ret i1 %6
}

; Function Attrs: mustprogress uwtable
define dso_local ptr @_ZNK6cmTest11GetPropertyERKNSt7__cxx1112basic_stringIcSt11char_traitsIcESaIcEEE(ptr noundef nonnull align 8 dereferenceable(148) %0, ptr noundef nonnull align 8 dereferenceable(32) %1) #4 align 2 {
  %3 = alloca %class.cmValue, align 8
  %4 = alloca ptr, align 8
  %5 = alloca ptr, align 8
  %6 = alloca %class.cmValue, align 8
  %7 = alloca i8, align 1
  store ptr %0, ptr %4, align 8
  store ptr %1, ptr %5, align 8
  %8 = load ptr, ptr %4, align 8
  %9 = getelementptr inbounds %class.cmTest, ptr %8, i32 0, i32 0
  %10 = load ptr, ptr %5, align 8
  %11 = call ptr @_ZNK13cmPropertyMap16GetPropertyValueERKNSt7__cxx1112basic_stringIcSt11char_traitsIcESaIcEEE(ptr noundef nonnull align 8 dereferenceable(56) %9, ptr noundef nonnull align 8 dereferenceable(32) %10)
  %12 = getelementptr inbounds %class.cmValue, ptr %6, i32 0, i32 0
  store ptr %11, ptr %12, align 8
  %13 = call noundef zeroext i1 @_ZNK7cmValuecvbEv(ptr noundef nonnull align 8 dereferenceable(8) %6) #3
  br i1 %13, label %35, label %14

14:                                               ; preds = %2
  %15 = getelementptr inbounds %class.cmTest, ptr %8, i32 0, i32 6
  %16 = load ptr, ptr %15, align 8
  %17 = call noundef ptr @_ZNK10cmMakefile8GetStateEv(ptr noundef nonnull align 8 dereferenceable(3520) %16)
  %18 = load ptr, ptr %5, align 8
  %19 = call noundef zeroext i1 @_ZNK7cmState17IsPropertyChainedERKNSt7__cxx1112basic_stringIcSt11char_traitsIcESaIcEEEN10cmProperty9ScopeTypeE(ptr noundef nonnull align 8 dereferenceable(705) %17, ptr noundef nonnull align 8 dereferenceable(32) %18, i32 noundef 5)
  %20 = zext i1 %19 to i8
  store i8 %20, ptr %7, align 1
  %21 = load i8, ptr %7, align 1
  %22 = trunc i8 %21 to i1
  br i1 %22, label %23, label %34

23:                                               ; preds = %14
  %24 = getelementptr inbounds %class.cmTest, ptr %8, i32 0, i32 6
  %25 = load ptr, ptr %24, align 8
  %26 = load ptr, ptr %5, align 8
  %27 = load i8, ptr %7, align 1
  %28 = trunc i8 %27 to i1
  %29 = call ptr @_ZNK10cmMakefile11GetPropertyERKNSt7__cxx1112basic_stringIcSt11char_traitsIcESaIcEEEb(ptr noundef nonnull align 8 dereferenceable(3520) %25, ptr noundef nonnull align 8 dereferenceable(32) %26, i1 noundef zeroext %28)
  %30 = getelementptr inbounds %class.cmValue, ptr %3, i32 0, i32 0
  store ptr %29, ptr %30, align 8
  %31 = call noundef zeroext i1 @_ZNK7cmValuecvbEv(ptr noundef nonnull align 8 dereferenceable(8) %3) #3
  br i1 %31, label %32, label %33

32:                                               ; preds = %23
  br label %36

33:                                               ; preds = %23
  br label %34

34:                                               ; preds = %33, %14
  call void @_ZN7cmValueC2EDn(ptr noundef nonnull align 8 dereferenceable(8) %3, ptr null) #3
  br label %36

35:                                               ; preds = %2
  call void @llvm.memcpy.p0.p0.i64(ptr align 8 %3, ptr align 8 %6, i64 8, i1 false)
  br label %36

36:                                               ; preds = %35, %34, %32
  %37 = getelementptr inbounds %class.cmValue, ptr %3, i32 0, i32 0
  %38 = load ptr, ptr %37, align 8
  ret ptr %38
}