; Function Attrs: mustprogress uwtable
define dso_local ptr @_ZNK6cmTest11GetPropertyERKNSt7__cxx1112basic_stringIcSt11char_traitsIcESaIcEEE(ptr noundef nonnull align 8 dereferenceable(148) %0, ptr noundef nonnull align 8 dereferenceable(32) %1) local_unnamed_addr #3 align 2 {
  %3 = tail call ptr @_ZNK13cmPropertyMap16GetPropertyValueERKNSt7__cxx1112basic_stringIcSt11char_traitsIcESaIcEEE(ptr noundef nonnull align 8 dereferenceable(56) %0, ptr noundef nonnull align 8 dereferenceable(32) %1)
  %.not = icmp eq ptr %3, null
  br i1 %.not, label %4, label %13

4:                                                ; preds = %2
  %5 = getelementptr inbounds nuw i8, ptr %0, i64 120
  %6 = load ptr, ptr %5, align 8
  %7 = tail call noundef ptr @_ZNK10cmMakefile8GetStateEv(ptr noundef nonnull align 8 dereferenceable(3520) %6)
  %8 = tail call noundef zeroext i1 @_ZNK7cmState17IsPropertyChainedERKNSt7__cxx1112basic_stringIcSt11char_traitsIcESaIcEEEN10cmProperty9ScopeTypeE(ptr noundef nonnull align 8 dereferenceable(705) %7, ptr noundef nonnull align 8 dereferenceable(32) %1, i32 noundef 5)
  br i1 %8, label %9, label %12

9:                                                ; preds = %4
  %10 = load ptr, ptr %5, align 8
  %11 = tail call ptr @_ZNK10cmMakefile11GetPropertyERKNSt7__cxx1112basic_stringIcSt11char_traitsIcESaIcEEEb(ptr noundef nonnull align 8 dereferenceable(3520) %10, ptr noundef nonnull align 8 dereferenceable(32) %1, i1 noundef zeroext true)
  %.not7 = icmp eq ptr %11, null
  br i1 %.not7, label %12, label %13

12:                                               ; preds = %9, %4
  br label %13

13:                                               ; preds = %2, %9, %12
  %.sroa.05.0 = phi ptr [ %11, %9 ], [ null, %12 ], [ %3, %2 ]
  ret ptr %.sroa.05.0
}